target datalayout = "e-m:e-p270:32:32-p271:32:32-p272:64:64-i64:64-i128:128-f80:128-n8:16:32:64-S128"
target triple = "x86_64-pc-linux-gnu"

%class.ErrorHandler = type <{ i32, i32, i8, i8, i8, i8, i8, i8, [2 x i8] }>

; Function Attrs: mustprogress nounwind uwtable
define void @_ZN12ErrorHandler12SetErrorCodeE8RAR_EXIT(ptr noundef nonnull align 4 dereferenceable(14) %0, i32 noundef %1) #1 align 2 {
  %3 = alloca ptr, align 8
  %4 = alloca i32, align 4
  store ptr %0, ptr %3, align 8
  store i32 %1, ptr %4, align 4
  %5 = load ptr, ptr %3, align 8
  %6 = load i32, ptr %4, align 4
  switch i32 %6, label %34 [
    i32 1, label %7
    i32 255, label %7
    i32 3, label %15
    i32 2, label %23
  ]

7:                                                ; preds = %2, %2
  %8 = getelementptr inbounds %class.ErrorHandler, ptr %5, i32 0, i32 0
  %9 = load i32, ptr %8, align 4
  %10 = icmp eq i32 %9, 0
  br i1 %10, label %11, label %14

11:                                               ; preds = %7
  %12 = load i32, ptr %4, align 4
  %13 = getelementptr inbounds %class.ErrorHandler, ptr %5, i32 0, i32 0
  store i32 %12, ptr %13, align 4
  br label %14

14:                                               ; preds = %11, %7
  br label %37

15:                                               ; preds = %2
  %16 = getelementptr inbounds %class.ErrorHandler, ptr %5, i32 0, i32 0
  %17 = load i32, ptr %16, align 4
  %18 = icmp ne i32 %17, 11
  br i1 %18, label %19, label %22

19:                                               ; preds = %15
  %20 = load i32, ptr %4, align 4
  %21 = getelementptr inbounds %class.ErrorHandler, ptr %5, i32 0, i32 0
  store i32 %20, ptr %21, align 4
  br label %22

22:                                               ; preds = %19, %15
  br label %37

23:                                               ; preds = %2
  %24 = getelementptr inbounds %class.ErrorHandler, ptr %5, i32 0, i32 0
  %25 = load i32, ptr %24, align 4
  %26 = icmp eq i32 %25, 0
  br i1 %26, label %31, label %27

27:                                               ; preds = %23
  %28 = getelementptr inbounds %class.ErrorHandler, ptr %5, i32 0, i32 0
  %29 = load i32, ptr %28, align 4
  %30 = icmp eq i32 %29, 1
  br i1 %30, label %31, label %33

31:                                               ; preds = %27, %23
  %32 = getelementptr inbounds %class.ErrorHandler, ptr %5, i32 0, i32 0
  store i32 2, ptr %32, align 4
  br label %33

33:                                               ; preds = %31, %27
  br label %37

34:                                               ; preds = %2
  %35 = load i32, ptr %4, align 4
  %36 = getelementptr inbounds %class.ErrorHandler, ptr %5, i32 0, i32 0
  store i32 %35, ptr %36, align 4
  br label %37

37:                                               ; preds = %34, %33, %22, %14
  %38 = getelementptr inbounds %class.ErrorHandler, ptr %5, i32 0, i32 1
  %39 = load i32, ptr %38, align 4
  %40 = add i32 %39, 1
  store i32 %40, ptr %38, align 4
  ret void
}

; Function Attrs: mustprogress uwtable
define void @_ZN12ErrorHandler13AskRepeatReadEPKwRbS2_S2_(ptr noundef nonnull align 4 dereferenceable(14) %0, ptr noundef %1, ptr noundef nonnull align 1 dereferenceable(1) %2, ptr noundef nonnull align 1 dereferenceable(1) %3, ptr noundef nonnull align 1 dereferenceable(1) %4) #0 align 2 {
  %6 = alloca ptr, align 8
  %7 = alloca ptr, align 8
  %8 = alloca ptr, align 8
  %9 = alloca ptr, align 8
  %10 = alloca ptr, align 8
  store ptr %0, ptr %6, align 8
  store ptr %1, ptr %7, align 8
  store ptr %2, ptr %8, align 8
  store ptr %3, ptr %9, align 8
  store ptr %4, ptr %10, align 8
  %11 = load ptr, ptr %6, align 8
  call void @_ZN12ErrorHandler12SetErrorCodeE8RAR_EXIT(ptr noundef nonnull align 4 dereferenceable(14) %11, i32 noundef 12)
  %12 = load ptr, ptr %8, align 8
  store i8 1, ptr %12, align 1
  ret void
}