; Function Attrs: mustprogress nofree norecurse nosync nounwind willreturn memory(argmem: readwrite) uwtable
define void @_ZN12ErrorHandler13AskRepeatReadEPKwRbS2_S2_(ptr nocapture noundef nonnull align 4 dereferenceable(14) %0, ptr nocapture noundef readnone %1, ptr nocapture noundef nonnull writeonly align 1 dereferenceable(1) %2, ptr nocapture noundef nonnull readnone align 1 dereferenceable(1) %3, ptr nocapture noundef nonnull readnone align 1 dereferenceable(1) %4) local_unnamed_addr #4 align 2 {
  store i32 12, ptr %0, align 4
  %6 = getelementptr inbounds i8, ptr %0, i64 4
  %7 = load i32, ptr %6, align 4
  %8 = add i32 %7, 1
  store i32 %8, ptr %6, align 4
  store i8 1, ptr %2, align 1
  ret void
}